; Function Attrs: mustprogress uwtable
define dso_local void @_ZN17cmGlobalGenerator28IndexGeneratorTargetUniquelyB5cxx11EPK17cmGeneratorTarget(ptr dead_on_unwind noalias writable sret(%"class.std::__cxx11::basic_string") align 8 %0, ptr noundef nonnull align 8 dereferenceable(1778) %1, ptr noundef %2) local_unnamed_addr #3 align 2 personality ptr @__gxx_personality_v0 {
  %4 = alloca ptr, align 8
  %5 = alloca [17 x i8], align 16
  %6 = alloca %"class.std::allocator", align 1
  store ptr %2, ptr %4, align 8
  %7 = getelementptr inbounds i8, ptr %5, i64 1
  store i8 58, ptr %5, align 16
  br label %8

8:                                                ; preds = %3, %8
  %.01216 = phi ptr [ %7, %3 ], [ %21, %8 ]
  %.01315 = phi i64 [ 0, %3 ], [ %22, %8 ]
  %9 = getelementptr inbounds i8, ptr %4, i64 %.01315
  %10 = load i8, ptr %9, align 1
  %11 = zext i8 %10 to i32
  %12 = lshr i32 %11, 4
  %13 = zext nneg i32 %12 to i64
  %14 = getelementptr inbounds [17 x i8], ptr @_ZL9hexDigits, i64 0, i64 %13
  %15 = load i8, ptr %14, align 1
  %16 = getelementptr inbounds i8, ptr %.01216, i64 1
  store i8 %15, ptr %.01216, align 1
  %17 = and i32 %11, 15
  %18 = zext nneg i32 %17 to i64
  %19 = getelementptr inbounds [17 x i8], ptr @_ZL9hexDigits, i64 0, i64 %18
  %20 = load i8, ptr %19, align 1
  %21 = getelementptr inbounds i8, ptr %.01216, i64 2
  store i8 %20, ptr %16, align 1
  %22 = add nuw nsw i64 %.01315, 1
  %exitcond.not = icmp eq i64 %22, 8
  br i1 %exitcond.not, label %23, label %8, !llvm.loop !724

23:                                               ; preds = %8
  call void @_ZNSaIcEC1Ev(ptr noundef nonnull align 1 dereferenceable(1) %6) #23
  invoke void @_ZNSt7__cxx1112basic_stringIcSt11char_traitsIcESaIcEEC1EPKcmRKS3_(ptr noundef nonnull align 8 dereferenceable(32) %0, ptr noundef nonnull %5, i64 noundef 17, ptr noundef nonnull align 1 dereferenceable(1) %6)
          to label %24 unwind label %27

24:                                               ; preds = %23
  call void @_ZNSaIcED1Ev(ptr noundef nonnull align 1 dereferenceable(1) %6) #23
  %25 = getelementptr inbounds i8, ptr %1, i64 536
  %26 = invoke noundef nonnull align 8 dereferenceable(8) ptr @_ZNSt8__detail9_Map_baseINSt7__cxx1112basic_stringIcSt11char_traitsIcESaIcEEESt4pairIKS6_P17cmGeneratorTargetESaISB_ENS_10_Select1stESt8equal_toIS6_ESt4hashIS6_ENS_18_Mod_range_hashingENS_20_Default_ranged_hashENS_20_Prime_rehash_policyENS_17_Hashtable_traitsILb1ELb0ELb1EEELb1EEixERS8_(ptr noundef nonnull align 1 dereferenceable(1) %25, ptr noundef nonnull align 8 dereferenceable(32) %0)
          to label %_ZNSt13unordered_mapINSt7__cxx1112basic_stringIcSt11char_traitsIcESaIcEEEP17cmGeneratorTargetSt4hashIS5_ESt8equal_toIS5_ESaISt4pairIKS5_S7_EEEixERSD_.exit unwind label %29

_ZNSt13unordered_mapINSt7__cxx1112basic_stringIcSt11char_traitsIcESaIcEEEP17cmGeneratorTargetSt4hashIS5_ESt8equal_toIS5_ESaISt4pairIKS5_S7_EEEixERSD_.exit: ; preds = %24
  store ptr %2, ptr %26, align 8
  ret void

27:                                               ; preds = %23
  %28 = landingpad { ptr, i32 }
          cleanup
  call void @_ZNSaIcED1Ev(ptr noundef nonnull align 1 dereferenceable(1) %6) #23
  br label %31

29:                                               ; preds = %24
  %30 = landingpad { ptr, i32 }
          cleanup
  call void @_ZNSt7__cxx1112basic_stringIcSt11char_traitsIcESaIcEED1Ev(ptr noundef nonnull align 8 dereferenceable(32) %0) #23
  br label %31

31:                                               ; preds = %29, %27
  %.pn = phi { ptr, i32 } [ %30, %29 ], [ %28, %27 ]
  resume { ptr, i32 } %.pn
}